target datalayout = "e-m:e-p270:32:32-p271:32:32-p272:64:64-i64:64-i128:128-f80:128-n8:16:32:64-S128"
target triple = "x86_64-pc-linux-gnu"

%struct._generic_SUNAdaptController = type { ptr, ptr, ptr }
%struct.SUNAdaptControllerContent_MRIHTol_ = type { ptr, ptr, double, double, double }

; Function Attrs: nounwind uwtable
define i32 @SUNAdaptController_Space_MRIHTol(ptr noundef %0, ptr noundef %1, ptr noundef %2) #0 {
  %4 = alloca ptr, align 8
  %5 = alloca ptr, align 8
  %6 = alloca ptr, align 8
  %7 = alloca ptr, align 8
  %8 = alloca i64, align 8
  %9 = alloca i64, align 8
  store ptr %0, ptr %4, align 8, !tbaa !3
  store ptr %1, ptr %5, align 8, !tbaa !40
  store ptr %2, ptr %6, align 8, !tbaa !40
  call void @llvm.lifetime.start.p0(i64 8, ptr %7) #5
  %10 = load ptr, ptr %4, align 8, !tbaa !3
  %11 = getelementptr inbounds nuw %struct._generic_SUNAdaptController, ptr %10, i32 0, i32 2
  %12 = load ptr, ptr %11, align 8, !tbaa !37
  store ptr %12, ptr %7, align 8, !tbaa !8
  call void @llvm.lifetime.start.p0(i64 8, ptr %8) #5
  call void @llvm.lifetime.start.p0(i64 8, ptr %9) #5
  %13 = load ptr, ptr %4, align 8, !tbaa !3
  %14 = getelementptr inbounds nuw %struct._generic_SUNAdaptController, ptr %13, i32 0, i32 0
  %15 = load ptr, ptr %14, align 8, !tbaa !31
  %16 = getelementptr inbounds nuw %struct.SUNAdaptControllerContent_MRIHTol_, ptr %15, i32 0, i32 0
  %17 = load ptr, ptr %16, align 8, !tbaa !24
  %18 = load ptr, ptr %5, align 8, !tbaa !40
  %19 = load ptr, ptr %6, align 8, !tbaa !40
  %20 = call i32 @SUNAdaptController_Space(ptr noundef %17, ptr noundef %18, ptr noundef %19)
  %21 = load ptr, ptr %4, align 8, !tbaa !3
  %22 = getelementptr inbounds nuw %struct._generic_SUNAdaptController, ptr %21, i32 0, i32 0
  %23 = load ptr, ptr %22, align 8, !tbaa !31
  %24 = getelementptr inbounds nuw %struct.SUNAdaptControllerContent_MRIHTol_, ptr %23, i32 0, i32 1
  %25 = load ptr, ptr %24, align 8, !tbaa !27
  %26 = call i32 @SUNAdaptController_Space(ptr noundef %25, ptr noundef %8, ptr noundef %9)
  %27 = load i64, ptr %8, align 8, !tbaa !42
  %28 = load ptr, ptr %5, align 8, !tbaa !40
  %29 = load i64, ptr %28, align 8, !tbaa !42
  %30 = add nsw i64 %29, %27
  store i64 %30, ptr %28, align 8, !tbaa !42
  %31 = load i64, ptr %9, align 8, !tbaa !42
  %32 = load ptr, ptr %6, align 8, !tbaa !40
  %33 = load i64, ptr %32, align 8, !tbaa !42
  %34 = add nsw i64 %33, %31
  store i64 %34, ptr %32, align 8, !tbaa !42
  call void @llvm.lifetime.end.p0(i64 8, ptr %9) #5
  call void @llvm.lifetime.end.p0(i64 8, ptr %8) #5
  call void @llvm.lifetime.end.p0(i64 8, ptr %7) #5
  ret i32 0
}