; Function Attrs: nounwind uwtable
define noundef i32 @SUNAdaptController_Space_MRIHTol(ptr noundef readonly captures(none) %0, ptr noundef %1, ptr noundef %2) #0 {
  %4 = alloca i64, align 8
  %5 = alloca i64, align 8
  call void @llvm.lifetime.start.p0(i64 8, ptr nonnull %4) #9
  call void @llvm.lifetime.start.p0(i64 8, ptr nonnull %5) #9
  %6 = load ptr, ptr %0, align 8, !tbaa !27
  %7 = load ptr, ptr %6, align 8, !tbaa !19
  %8 = tail call i32 @SUNAdaptController_Space(ptr noundef %7, ptr noundef %1, ptr noundef %2) #9
  %9 = load ptr, ptr %0, align 8, !tbaa !27
  %10 = getelementptr inbounds nuw i8, ptr %9, i64 8
  %11 = load ptr, ptr %10, align 8, !tbaa !23
  %12 = call i32 @SUNAdaptController_Space(ptr noundef %11, ptr noundef nonnull %4, ptr noundef nonnull %5) #9
  %13 = load i64, ptr %4, align 8, !tbaa !29
  %14 = load i64, ptr %1, align 8, !tbaa !29
  %15 = add nsw i64 %14, %13
  store i64 %15, ptr %1, align 8, !tbaa !29
  %16 = load i64, ptr %5, align 8, !tbaa !29
  %17 = load i64, ptr %2, align 8, !tbaa !29
  %18 = add nsw i64 %17, %16
  store i64 %18, ptr %2, align 8, !tbaa !29
  call void @llvm.lifetime.end.p0(i64 8, ptr nonnull %5) #9
  call void @llvm.lifetime.end.p0(i64 8, ptr nonnull %4) #9
  ret i32 0
}